ARM GAS  C:\Users\Brad\AppData\Local\Temp\ccy0jD5U.s 			page 1


   1              		.syntax unified
   2              		.cpu cortex-m3
   3              		.fpu softvfp
   4              		.eabi_attribute 20, 1
   5              		.eabi_attribute 21, 1
   6              		.eabi_attribute 23, 3
   7              		.eabi_attribute 24, 1
   8              		.eabi_attribute 25, 1
   9              		.eabi_attribute 26, 1
  10              		.eabi_attribute 30, 1
  11              		.eabi_attribute 34, 1
  12              		.eabi_attribute 18, 4
  13              		.thumb
  14              		.syntax unified
  15              		.file	"main.c"
  16              		.text
  17              	.Ltext0:
  18              		.cfi_sections	.debug_frame
  19              		.section	.text.IC_Init,"ax",%progbits
  20              		.align	2
  21              		.global	IC_Init
  22              		.thumb
  23              		.thumb_func
  24              		.type	IC_Init, %function
  25              	IC_Init:
  26              	.LFB64:
  27              		.file 1 "main.c"
   1:main.c        **** /* ========================================
   2:main.c        ****  *
   3:main.c        ****  * Copyright YOUR COMPANY, THE YEAR
   4:main.c        ****  * All Rights Reserved
   5:main.c        ****  * UNPUBLISHED, LICENSED SOFTWARE.
   6:main.c        ****  *
   7:main.c        ****  * CONFIDENTIAL AND PROPRIETARY INFORMATION
   8:main.c        ****  * WHICH IS THE PROPERTY OF your company.
   9:main.c        ****  *
  10:main.c        ****  * ========================================
  11:main.c        **** */
  12:main.c        **** #include "project.h"
  13:main.c        **** #include "math.h"
  14:main.c        **** #include "float.h"
  15:main.c        **** 
  16:main.c        **** #define MUX_CHANNEL_0   0U
  17:main.c        **** #define MUX_CHANNEL_1   1U
  18:main.c        **** #define HIGH            1U
  19:main.c        **** #define LOW             0U
  20:main.c        **** #define R_VAL_OHMS      10000U
  21:main.c        **** #define PERIOD_1HZ      1000U
  22:main.c        **** 
  23:main.c        **** void IC_Init();
  24:main.c        **** int16 Read_Thermistor_Val(uint8_t Mux_Channel);
  25:main.c        **** void LCD_Print_In_Degrees(int16 temperature);
  26:main.c        **** 
  27:main.c        **** int main(void)
  28:main.c        **** {
  29:main.c        ****     CyGlobalIntEnable; /* Enable global interrupts. */
  30:main.c        **** 
ARM GAS  C:\Users\Brad\AppData\Local\Temp\ccy0jD5U.s 			page 2


  31:main.c        ****     /* Place your initialization/startup code here (e.g. MyInst_Start()) */
  32:main.c        ****     IC_Init();
  33:main.c        ****     
  34:main.c        ****     int16 thermistor_mV, R1_mV, temperature;
  35:main.c        ****     uint32_t thermistor_R;
  36:main.c        ****     
  37:main.c        ****     for(;;)
  38:main.c        ****     {
  39:main.c        ****         
  40:main.c        ****         thermistor_mV = Read_Thermistor_Val(MUX_CHANNEL_0);
  41:main.c        ****         R1_mV         = Read_Thermistor_Val(MUX_CHANNEL_1);
  42:main.c        ****         
  43:main.c        ****         thermistor_R = Thermistor_Calc_GetResistance(R1_mV, thermistor_mV);
  44:main.c        ****         
  45:main.c        ****         temperature = Thermistor_Calc_GetTemperature(thermistor_R);
  46:main.c        ****         
  47:main.c        ****         LCD_Print_In_Degrees(temperature);
  48:main.c        ****         
  49:main.c        ****         CyDelay(PERIOD_1HZ);
  50:main.c        ****     }
  51:main.c        **** }
  52:main.c        **** 
  53:main.c        **** void IC_Init()
  54:main.c        **** {
  28              		.loc 1 54 0
  29              		.cfi_startproc
  30              		@ args = 0, pretend = 0, frame = 0
  31              		@ frame_needed = 0, uses_anonymous_args = 0
  32 0000 08B5     		push	{r3, lr}
  33              		.cfi_def_cfa_offset 8
  34              		.cfi_offset 3, -8
  35              		.cfi_offset 14, -4
  55:main.c        ****     ADC_DelSig_1_Start();
  36              		.loc 1 55 0
  37 0002 FFF7FEFF 		bl	ADC_DelSig_1_Start
  38              	.LVL0:
  56:main.c        ****     AMux_1_Start();
  39              		.loc 1 56 0
  40 0006 FFF7FEFF 		bl	AMux_1_Start
  41              	.LVL1:
  57:main.c        ****     LCD_Char_1_Start();
  42              		.loc 1 57 0
  43 000a FFF7FEFF 		bl	LCD_Char_1_Start
  44              	.LVL2:
  58:main.c        ****     LCD_Char_1_Position(0,0);
  45              		.loc 1 58 0
  46 000e 0021     		movs	r1, #0
  47 0010 0846     		mov	r0, r1
  48 0012 FFF7FEFF 		bl	LCD_Char_1_Position
  49              	.LVL3:
  50 0016 08BD     		pop	{r3, pc}
  51              		.cfi_endproc
  52              	.LFE64:
  53              		.size	IC_Init, .-IC_Init
  54              		.section	.text.Read_Thermistor_Val,"ax",%progbits
  55              		.align	2
  56              		.global	Read_Thermistor_Val
ARM GAS  C:\Users\Brad\AppData\Local\Temp\ccy0jD5U.s 			page 3


  57              		.thumb
  58              		.thumb_func
  59              		.type	Read_Thermistor_Val, %function
  60              	Read_Thermistor_Val:
  61              	.LFB65:
  59:main.c        **** }
  60:main.c        **** 
  61:main.c        **** int16 Read_Thermistor_Val(uint8_t Mux_Channel)
  62:main.c        **** {
  62              		.loc 1 62 0
  63              		.cfi_startproc
  64              		@ args = 0, pretend = 0, frame = 0
  65              		@ frame_needed = 0, uses_anonymous_args = 0
  66              	.LVL4:
  67 0000 10B5     		push	{r4, lr}
  68              		.cfi_def_cfa_offset 8
  69              		.cfi_offset 4, -8
  70              		.cfi_offset 14, -4
  71 0002 0446     		mov	r4, r0
  63:main.c        ****     int16 ADC_Result;
  64:main.c        ****     int16 ADC_Result_mV;
  65:main.c        ****     
  66:main.c        ****     Pin3_3_Write(HIGH);
  72              		.loc 1 66 0
  73 0004 0120     		movs	r0, #1
  74              	.LVL5:
  75 0006 FFF7FEFF 		bl	Pin3_3_Write
  76              	.LVL6:
  67:main.c        ****         
  68:main.c        ****     AMux_1_Select(Mux_Channel);
  77              		.loc 1 68 0
  78 000a 2046     		mov	r0, r4
  79 000c FFF7FEFF 		bl	AMux_1_Select
  80              	.LVL7:
  69:main.c        ****     ADC_DelSig_1_StartConvert();
  81              		.loc 1 69 0
  82 0010 FFF7FEFF 		bl	ADC_DelSig_1_StartConvert
  83              	.LVL8:
  70:main.c        ****     
  71:main.c        ****     // Blocking call to poll for end of ADC Conversion
  72:main.c        ****     ADC_DelSig_1_IsEndConversion(ADC_DelSig_1_WAIT_FOR_RESULT);
  84              		.loc 1 72 0
  85 0014 0020     		movs	r0, #0
  86 0016 FFF7FEFF 		bl	ADC_DelSig_1_IsEndConversion
  87              	.LVL9:
  73:main.c        ****     
  74:main.c        ****     Pin3_3_Write(LOW);
  88              		.loc 1 74 0
  89 001a 0020     		movs	r0, #0
  90 001c FFF7FEFF 		bl	Pin3_3_Write
  91              	.LVL10:
  75:main.c        ****     
  76:main.c        ****     ADC_Result = ADC_DelSig_1_GetResult16();
  92              		.loc 1 76 0
  93 0020 FFF7FEFF 		bl	ADC_DelSig_1_GetResult16
  94              	.LVL11:
  77:main.c        ****     ADC_Result_mV = (int16) ADC_DelSig_1_CountsTo_mVolts(ADC_Result);
ARM GAS  C:\Users\Brad\AppData\Local\Temp\ccy0jD5U.s 			page 4


  95              		.loc 1 77 0
  96 0024 FFF7FEFF 		bl	ADC_DelSig_1_CountsTo_mVolts
  97              	.LVL12:
  78:main.c        ****     
  79:main.c        ****     return (ADC_Result_mV);
  80:main.c        **** }
  98              		.loc 1 80 0
  99 0028 10BD     		pop	{r4, pc}
 100              		.cfi_endproc
 101              	.LFE65:
 102              		.size	Read_Thermistor_Val, .-Read_Thermistor_Val
 103 002a 00BF     		.section	.text.LCD_Print_In_Degrees,"ax",%progbits
 104              		.align	2
 105              		.global	LCD_Print_In_Degrees
 106              		.thumb
 107              		.thumb_func
 108              		.type	LCD_Print_In_Degrees, %function
 109              	LCD_Print_In_Degrees:
 110              	.LFB66:
  81:main.c        **** 
  82:main.c        **** void LCD_Print_In_Degrees(int16 temperature)
  83:main.c        **** {
 111              		.loc 1 83 0
 112              		.cfi_startproc
 113              		@ args = 0, pretend = 0, frame = 0
 114              		@ frame_needed = 0, uses_anonymous_args = 0
 115              	.LVL13:
 116 0000 38B5     		push	{r3, r4, r5, lr}
 117              		.cfi_def_cfa_offset 16
 118              		.cfi_offset 3, -16
 119              		.cfi_offset 4, -12
 120              		.cfi_offset 5, -8
 121              		.cfi_offset 14, -4
 122 0002 0546     		mov	r5, r0
  84:main.c        ****     LCD_Char_1_PrintNumber(temperature / 100);
 123              		.loc 1 84 0
 124 0004 0B4C     		ldr	r4, .L7
 125 0006 84FB0034 		smull	r3, r4, r4, r0
 126 000a C317     		asrs	r3, r0, #31
 127 000c C3EB6414 		rsb	r4, r3, r4, asr #5
 128 0010 A0B2     		uxth	r0, r4
 129              	.LVL14:
 130 0012 FFF7FEFF 		bl	LCD_Char_1_PrintU32Number
 131              	.LVL15:
  85:main.c        ****     LCD_Char_1_Position(1,2);
 132              		.loc 1 85 0
 133 0016 0221     		movs	r1, #2
 134 0018 0120     		movs	r0, #1
 135 001a FFF7FEFF 		bl	LCD_Char_1_Position
 136              	.LVL16:
  86:main.c        ****     LCD_Char_1_PrintString(".");
 137              		.loc 1 86 0
 138 001e 0648     		ldr	r0, .L7+4
 139 0020 FFF7FEFF 		bl	LCD_Char_1_PrintString
 140              	.LVL17:
  87:main.c        ****     LCD_Char_1_PrintNumber(temperature % 100);
 141              		.loc 1 87 0
ARM GAS  C:\Users\Brad\AppData\Local\Temp\ccy0jD5U.s 			page 5


 142 0024 6420     		movs	r0, #100
 143 0026 00FB1450 		mls	r0, r0, r4, r5
 144 002a 80B2     		uxth	r0, r0
 145 002c FFF7FEFF 		bl	LCD_Char_1_PrintU32Number
 146              	.LVL18:
 147 0030 38BD     		pop	{r3, r4, r5, pc}
 148              	.L8:
 149 0032 00BF     		.align	2
 150              	.L7:
 151 0034 1F85EB51 		.word	1374389535
 152 0038 00000000 		.word	.LC0
 153              		.cfi_endproc
 154              	.LFE66:
 155              		.size	LCD_Print_In_Degrees, .-LCD_Print_In_Degrees
 156              		.section	.text.main,"ax",%progbits
 157              		.align	2
 158              		.global	main
 159              		.thumb
 160              		.thumb_func
 161              		.type	main, %function
 162              	main:
 163              	.LFB63:
  28:main.c        ****     CyGlobalIntEnable; /* Enable global interrupts. */
 164              		.loc 1 28 0
 165              		.cfi_startproc
 166              		@ args = 0, pretend = 0, frame = 0
 167              		@ frame_needed = 0, uses_anonymous_args = 0
 168 0000 10B5     		push	{r4, lr}
 169              		.cfi_def_cfa_offset 8
 170              		.cfi_offset 4, -8
 171              		.cfi_offset 14, -4
  29:main.c        **** 
 172              		.loc 1 29 0
 173              		.syntax unified
 174              	@ 29 "main.c" 1
 175 0002 62B6     		CPSIE   i
 176              	@ 0 "" 2
  32:main.c        ****     
 177              		.loc 1 32 0
 178              		.thumb
 179              		.syntax unified
 180 0004 FFF7FEFF 		bl	IC_Init
 181              	.LVL19:
 182              	.L10:
  40:main.c        ****         R1_mV         = Read_Thermistor_Val(MUX_CHANNEL_1);
 183              		.loc 1 40 0 discriminator 1
 184 0008 0020     		movs	r0, #0
 185 000a FFF7FEFF 		bl	Read_Thermistor_Val
 186              	.LVL20:
 187 000e 0446     		mov	r4, r0
 188              	.LVL21:
  41:main.c        ****         
 189              		.loc 1 41 0 discriminator 1
 190 0010 0120     		movs	r0, #1
 191 0012 FFF7FEFF 		bl	Read_Thermistor_Val
 192              	.LVL22:
  43:main.c        ****         
ARM GAS  C:\Users\Brad\AppData\Local\Temp\ccy0jD5U.s 			page 6


 193              		.loc 1 43 0 discriminator 1
 194 0016 2146     		mov	r1, r4
 195 0018 FFF7FEFF 		bl	Thermistor_Calc_GetResistance
 196              	.LVL23:
  45:main.c        ****         
 197              		.loc 1 45 0 discriminator 1
 198 001c FFF7FEFF 		bl	Thermistor_Calc_GetTemperature
 199              	.LVL24:
  47:main.c        ****         
 200              		.loc 1 47 0 discriminator 1
 201 0020 FFF7FEFF 		bl	LCD_Print_In_Degrees
 202              	.LVL25:
  49:main.c        ****     }
 203              		.loc 1 49 0 discriminator 1
 204 0024 4FF47A70 		mov	r0, #1000
 205 0028 FFF7FEFF 		bl	CyDelay
 206              	.LVL26:
 207 002c ECE7     		b	.L10
 208              		.cfi_endproc
 209              	.LFE63:
 210              		.size	main, .-main
 211 002e 00BF     		.section	.rodata.str1.4,"aMS",%progbits,1
 212              		.align	2
 213              	.LC0:
 214 0000 2E00     		.ascii	".\000"
 215              		.text
 216              	.Letext0:
 217              		.file 2 "c:\\program files (x86)\\cypress\\psoc creator\\4.4\\psoc creator\\import\\gnu\\arm\\5.4.
 218              		.file 3 "c:\\program files (x86)\\cypress\\psoc creator\\4.4\\psoc creator\\import\\gnu\\arm\\5.4.
 219              		.file 4 "Generated_Source\\PSoC5/cytypes.h"
 220              		.file 5 "Generated_Source\\PSoC5/ADC_DelSig_1.h"
 221              		.file 6 "Generated_Source\\PSoC5/AMux_1.h"
 222              		.file 7 "Generated_Source\\PSoC5/LCD_Char_1.h"
 223              		.file 8 "Generated_Source\\PSoC5/Pin3_3.h"
 224              		.file 9 "Generated_Source\\PSoC5/Thermistor_Calc.h"
 225              		.file 10 "Generated_Source\\PSoC5/CyLib.h"
 226              		.file 11 "Generated_Source\\PSoC5/core_cm3.h"